target datalayout = "e-m:e-p270:32:32-p271:32:32-p272:64:64-i64:64-i128:128-f80:128-n8:16:32:64-S128"
target triple = "x86_64-pc-linux-gnu"

%struct.RoqContext = type { ptr, ptr, ptr, ptr, i32, i32, [256 x %struct.roq_cell], [256 x %struct.roq_qcell] }
%struct.roq_cell = type { [4 x i8], i8, i8 }
%struct.roq_qcell = type { [4 x i32] }
%struct.AVFrame = type { [8 x ptr], [8 x i32], ptr, i32, i32, i32, i32, i32, %struct.AVRational, i64, i64, %struct.AVRational, i32, ptr, i32, i32, [8 x ptr], ptr, i32, ptr, i32, i32, i32, i32, i32, i32, i32, i64, ptr, i32, ptr, ptr, i64, i64, i64, i64, ptr, %struct.AVChannelLayout, i64 }
%struct.AVRational = type { i32, i32 }
%struct.AVChannelLayout = type { i32, i32, %union.anon, ptr }
%union.anon = type { i64 }

; Function Attrs: nounwind uwtable
define void @ff_apply_vector_2x2(ptr noundef %0, i32 noundef %1, i32 noundef %2, ptr noundef %3) #0 {
  %5 = alloca ptr, align 8
  %6 = alloca i32, align 4
  %7 = alloca i32, align 4
  %8 = alloca ptr, align 8
  %9 = alloca ptr, align 8
  %10 = alloca i32, align 4
  %11 = alloca i32, align 4
  store ptr %0, ptr %5, align 8, !tbaa !4
  store i32 %1, ptr %6, align 4, !tbaa !9
  store i32 %2, ptr %7, align 4, !tbaa !9
  store ptr %3, ptr %8, align 8, !tbaa !11
  call void @llvm.lifetime.start.p0(i64 8, ptr %9) #5
  call void @llvm.lifetime.start.p0(i64 4, ptr %10) #5
  call void @llvm.lifetime.start.p0(i64 4, ptr %11) #5
  %12 = load ptr, ptr %5, align 8, !tbaa !4
  %13 = getelementptr inbounds nuw %struct.RoqContext, ptr %12, i32 0, i32 3
  %14 = load ptr, ptr %13, align 8, !tbaa !13
  %15 = getelementptr inbounds nuw %struct.AVFrame, ptr %14, i32 0, i32 1
  %16 = getelementptr inbounds [8 x i32], ptr %15, i64 0, i64 0
  %17 = load i32, ptr %16, align 8, !tbaa !9
  store i32 %17, ptr %11, align 4, !tbaa !9
  %18 = load i32, ptr %7, align 4, !tbaa !9
  %19 = load i32, ptr %11, align 4, !tbaa !9
  %20 = mul nsw i32 %18, %19
  %21 = load i32, ptr %6, align 4, !tbaa !9
  %22 = add nsw i32 %20, %21
  store i32 %22, ptr %10, align 4, !tbaa !9
  %23 = load ptr, ptr %5, align 8, !tbaa !4
  %24 = getelementptr inbounds nuw %struct.RoqContext, ptr %23, i32 0, i32 3
  %25 = load ptr, ptr %24, align 8, !tbaa !13
  %26 = getelementptr inbounds nuw %struct.AVFrame, ptr %25, i32 0, i32 0
  %27 = getelementptr inbounds [8 x ptr], ptr %26, i64 0, i64 0
  %28 = load ptr, ptr %27, align 8, !tbaa !17
  %29 = load i32, ptr %10, align 4, !tbaa !9
  %30 = sext i32 %29 to i64
  %31 = getelementptr inbounds i8, ptr %28, i64 %30
  store ptr %31, ptr %9, align 8, !tbaa !17
  %32 = load ptr, ptr %8, align 8, !tbaa !11
  %33 = getelementptr inbounds nuw %struct.roq_cell, ptr %32, i32 0, i32 0
  %34 = getelementptr inbounds [4 x i8], ptr %33, i64 0, i64 0
  %35 = load i8, ptr %34, align 1, !tbaa !19
  %36 = load ptr, ptr %9, align 8, !tbaa !17
  %37 = getelementptr inbounds i8, ptr %36, i64 0
  store i8 %35, ptr %37, align 1, !tbaa !19
  %38 = load ptr, ptr %8, align 8, !tbaa !11
  %39 = getelementptr inbounds nuw %struct.roq_cell, ptr %38, i32 0, i32 0
  %40 = getelementptr inbounds [4 x i8], ptr %39, i64 0, i64 1
  %41 = load i8, ptr %40, align 1, !tbaa !19
  %42 = load ptr, ptr %9, align 8, !tbaa !17
  %43 = getelementptr inbounds i8, ptr %42, i64 1
  store i8 %41, ptr %43, align 1, !tbaa !19
  %44 = load ptr, ptr %8, align 8, !tbaa !11
  %45 = getelementptr inbounds nuw %struct.roq_cell, ptr %44, i32 0, i32 0
  %46 = getelementptr inbounds [4 x i8], ptr %45, i64 0, i64 2
  %47 = load i8, ptr %46, align 1, !tbaa !19
  %48 = load ptr, ptr %9, align 8, !tbaa !17
  %49 = load i32, ptr %11, align 4, !tbaa !9
  %50 = sext i32 %49 to i64
  %51 = getelementptr inbounds i8, ptr %48, i64 %50
  store i8 %47, ptr %51, align 1, !tbaa !19
  %52 = load ptr, ptr %8, align 8, !tbaa !11
  %53 = getelementptr inbounds nuw %struct.roq_cell, ptr %52, i32 0, i32 0
  %54 = getelementptr inbounds [4 x i8], ptr %53, i64 0, i64 3
  %55 = load i8, ptr %54, align 1, !tbaa !19
  %56 = load ptr, ptr %9, align 8, !tbaa !17
  %57 = load i32, ptr %11, align 4, !tbaa !9
  %58 = add nsw i32 %57, 1
  %59 = sext i32 %58 to i64
  %60 = getelementptr inbounds i8, ptr %56, i64 %59
  store i8 %55, ptr %60, align 1, !tbaa !19
  %61 = load ptr, ptr %5, align 8, !tbaa !4
  %62 = getelementptr inbounds nuw %struct.RoqContext, ptr %61, i32 0, i32 3
  %63 = load ptr, ptr %62, align 8, !tbaa !13
  %64 = getelementptr inbounds nuw %struct.AVFrame, ptr %63, i32 0, i32 1
  %65 = getelementptr inbounds [8 x i32], ptr %64, i64 0, i64 1
  %66 = load i32, ptr %65, align 4, !tbaa !9
  store i32 %66, ptr %11, align 4, !tbaa !9
  %67 = load i32, ptr %7, align 4, !tbaa !9
  %68 = load i32, ptr %11, align 4, !tbaa !9
  %69 = mul nsw i32 %67, %68
  %70 = load i32, ptr %6, align 4, !tbaa !9
  %71 = add nsw i32 %69, %70
  store i32 %71, ptr %10, align 4, !tbaa !9
  %72 = load ptr, ptr %5, align 8, !tbaa !4
  %73 = getelementptr inbounds nuw %struct.RoqContext, ptr %72, i32 0, i32 3
  %74 = load ptr, ptr %73, align 8, !tbaa !13
  %75 = getelementptr inbounds nuw %struct.AVFrame, ptr %74, i32 0, i32 0
  %76 = getelementptr inbounds [8 x ptr], ptr %75, i64 0, i64 1
  %77 = load ptr, ptr %76, align 8, !tbaa !17
  %78 = load i32, ptr %10, align 4, !tbaa !9
  %79 = sext i32 %78 to i64
  %80 = getelementptr inbounds i8, ptr %77, i64 %79
  store ptr %80, ptr %9, align 8, !tbaa !17
  %81 = load ptr, ptr %8, align 8, !tbaa !11
  %82 = getelementptr inbounds nuw %struct.roq_cell, ptr %81, i32 0, i32 1
  %83 = load i8, ptr %82, align 1, !tbaa !20
  %84 = load ptr, ptr %9, align 8, !tbaa !17
  %85 = load i32, ptr %11, align 4, !tbaa !9
  %86 = add nsw i32 %85, 1
  %87 = sext i32 %86 to i64
  %88 = getelementptr inbounds i8, ptr %84, i64 %87
  store i8 %83, ptr %88, align 1, !tbaa !19
  %89 = load ptr, ptr %9, align 8, !tbaa !17
  %90 = load i32, ptr %11, align 4, !tbaa !9
  %91 = sext i32 %90 to i64
  %92 = getelementptr inbounds i8, ptr %89, i64 %91
  store i8 %83, ptr %92, align 1, !tbaa !19
  %93 = load ptr, ptr %9, align 8, !tbaa !17
  %94 = getelementptr inbounds i8, ptr %93, i64 1
  store i8 %83, ptr %94, align 1, !tbaa !19
  %95 = load ptr, ptr %9, align 8, !tbaa !17
  %96 = getelementptr inbounds i8, ptr %95, i64 0
  store i8 %83, ptr %96, align 1, !tbaa !19
  %97 = load ptr, ptr %5, align 8, !tbaa !4
  %98 = getelementptr inbounds nuw %struct.RoqContext, ptr %97, i32 0, i32 3
  %99 = load ptr, ptr %98, align 8, !tbaa !13
  %100 = getelementptr inbounds nuw %struct.AVFrame, ptr %99, i32 0, i32 0
  %101 = getelementptr inbounds [8 x ptr], ptr %100, i64 0, i64 2
  %102 = load ptr, ptr %101, align 8, !tbaa !17
  %103 = load i32, ptr %10, align 4, !tbaa !9
  %104 = sext i32 %103 to i64
  %105 = getelementptr inbounds i8, ptr %102, i64 %104
  store ptr %105, ptr %9, align 8, !tbaa !17
  %106 = load ptr, ptr %8, align 8, !tbaa !11
  %107 = getelementptr inbounds nuw %struct.roq_cell, ptr %106, i32 0, i32 2
  %108 = load i8, ptr %107, align 1, !tbaa !22
  %109 = load ptr, ptr %9, align 8, !tbaa !17
  %110 = load i32, ptr %11, align 4, !tbaa !9
  %111 = add nsw i32 %110, 1
  %112 = sext i32 %111 to i64
  %113 = getelementptr inbounds i8, ptr %109, i64 %112
  store i8 %108, ptr %113, align 1, !tbaa !19
  %114 = load ptr, ptr %9, align 8, !tbaa !17
  %115 = load i32, ptr %11, align 4, !tbaa !9
  %116 = sext i32 %115 to i64
  %117 = getelementptr inbounds i8, ptr %114, i64 %116
  store i8 %108, ptr %117, align 1, !tbaa !19
  %118 = load ptr, ptr %9, align 8, !tbaa !17
  %119 = getelementptr inbounds i8, ptr %118, i64 1
  store i8 %108, ptr %119, align 1, !tbaa !19
  %120 = load ptr, ptr %9, align 8, !tbaa !17
  %121 = getelementptr inbounds i8, ptr %120, i64 0
  store i8 %108, ptr %121, align 1, !tbaa !19
  call void @llvm.lifetime.end.p0(i64 4, ptr %11) #5
  call void @llvm.lifetime.end.p0(i64 4, ptr %10) #5
  call void @llvm.lifetime.end.p0(i64 8, ptr %9) #5
  ret void
}