; Function Attrs: mustprogress nofree norecurse nosync nounwind willreturn memory(readwrite, inaccessiblemem: none) uwtable
define void @ff_apply_vector_2x2(ptr noundef readonly captures(none) %0, i32 noundef %1, i32 noundef %2, ptr noundef readonly captures(none) %3) local_unnamed_addr #0 {
  %5 = getelementptr inbounds nuw i8, ptr %0, i64 24
  %6 = load ptr, ptr %5, align 8, !tbaa !4
  %7 = getelementptr inbounds nuw i8, ptr %6, i64 64
  %8 = load i32, ptr %7, align 8, !tbaa !12
  %9 = mul nsw i32 %8, %2
  %10 = add nsw i32 %9, %1
  %11 = load ptr, ptr %6, align 8, !tbaa !13
  %12 = sext i32 %10 to i64
  %13 = getelementptr inbounds i8, ptr %11, i64 %12
  %14 = load i8, ptr %3, align 1, !tbaa !15
  store i8 %14, ptr %13, align 1, !tbaa !15
  %15 = getelementptr inbounds nuw i8, ptr %3, i64 1
  %16 = load i8, ptr %15, align 1, !tbaa !15
  %17 = getelementptr inbounds nuw i8, ptr %13, i64 1
  store i8 %16, ptr %17, align 1, !tbaa !15
  %18 = getelementptr inbounds nuw i8, ptr %3, i64 2
  %19 = load i8, ptr %18, align 1, !tbaa !15
  %20 = sext i32 %8 to i64
  %21 = getelementptr inbounds i8, ptr %13, i64 %20
  store i8 %19, ptr %21, align 1, !tbaa !15
  %22 = getelementptr inbounds nuw i8, ptr %3, i64 3
  %23 = load i8, ptr %22, align 1, !tbaa !15
  %24 = getelementptr i8, ptr %21, i64 1
  store i8 %23, ptr %24, align 1, !tbaa !15
  %25 = load ptr, ptr %5, align 8, !tbaa !4
  %26 = getelementptr inbounds nuw i8, ptr %25, i64 68
  %27 = load i32, ptr %26, align 4, !tbaa !12
  %28 = mul nsw i32 %27, %2
  %29 = add nsw i32 %28, %1
  %30 = getelementptr inbounds nuw i8, ptr %25, i64 8
  %31 = load ptr, ptr %30, align 8, !tbaa !13
  %32 = sext i32 %29 to i64
  %33 = getelementptr inbounds i8, ptr %31, i64 %32
  %34 = getelementptr inbounds nuw i8, ptr %3, i64 4
  %35 = load i8, ptr %34, align 1, !tbaa !16
  %36 = add nsw i32 %27, 1
  %37 = sext i32 %36 to i64
  %38 = getelementptr inbounds i8, ptr %33, i64 %37
  store i8 %35, ptr %38, align 1, !tbaa !15
  %39 = sext i32 %27 to i64
  %40 = getelementptr inbounds i8, ptr %33, i64 %39
  store i8 %35, ptr %40, align 1, !tbaa !15
  %41 = getelementptr inbounds nuw i8, ptr %33, i64 1
  store i8 %35, ptr %41, align 1, !tbaa !15
  store i8 %35, ptr %33, align 1, !tbaa !15
  %42 = load ptr, ptr %5, align 8, !tbaa !4
  %43 = getelementptr inbounds nuw i8, ptr %42, i64 16
  %44 = load ptr, ptr %43, align 8, !tbaa !13
  %45 = getelementptr inbounds i8, ptr %44, i64 %32
  %46 = getelementptr inbounds nuw i8, ptr %3, i64 5
  %47 = load i8, ptr %46, align 1, !tbaa !18
  %48 = getelementptr inbounds i8, ptr %45, i64 %37
  store i8 %47, ptr %48, align 1, !tbaa !15
  %49 = getelementptr inbounds i8, ptr %45, i64 %39
  store i8 %47, ptr %49, align 1, !tbaa !15
  %50 = getelementptr inbounds nuw i8, ptr %45, i64 1
  store i8 %47, ptr %50, align 1, !tbaa !15
  store i8 %47, ptr %45, align 1, !tbaa !15
  ret void
}